target datalayout = "e-m:e-p270:32:32-p271:32:32-p272:64:64-i64:64-i128:128-f80:128-n8:16:32:64-S128"
target triple = "x86_64-pc-linux-gnu"

%struct.addrinfo = type { i32, i32, i32, i32, i32, ptr, ptr, ptr }
%struct.rb_addrinfo = type { ptr, i32 }

; Function Attrs: nounwind sspstrong uwtable
define internal i64 @sock_s_pack_sockaddr_in(i64 noundef %0, i64 noundef %1, i64 noundef %2) #0 {
  %4 = alloca i64, align 8
  %5 = alloca i64, align 8
  %6 = alloca i64, align 8
  %7 = alloca ptr, align 8
  %8 = alloca i64, align 8
  store i64 %0, ptr %4, align 8, !tbaa !11
  store i64 %1, ptr %5, align 8, !tbaa !11
  store i64 %2, ptr %6, align 8, !tbaa !11
  call void @llvm.lifetime.start.p0(i64 8, ptr %7) #24
  %9 = load i64, ptr %6, align 8, !tbaa !11
  %10 = load i64, ptr %5, align 8, !tbaa !11
  %11 = call ptr @rsock_addrinfo(i64 noundef %9, i64 noundef %10, i32 noundef 0, i32 noundef 0, i32 noundef 0)
  store ptr %11, ptr %7, align 8, !tbaa !52
  call void @llvm.lifetime.start.p0(i64 8, ptr %8) #24
  br i1 false, label %12, label %19

12:                                               ; preds = %3
  %13 = load ptr, ptr %7, align 8, !tbaa !52
  %14 = getelementptr inbounds nuw %struct.rb_addrinfo, ptr %13, i32 0, i32 0
  %15 = load ptr, ptr %14, align 8, !tbaa !77
  %16 = getelementptr inbounds nuw %struct.addrinfo, ptr %15, i32 0, i32 4
  %17 = load i32, ptr %16, align 8, !tbaa !80
  %18 = call i1 @llvm.is.constant.i32(i32 %17)
  br label %19

19:                                               ; preds = %12, %3
  %20 = phi i1 [ false, %3 ], [ %18, %12 ]
  %21 = select i1 %20, ptr @rb_str_new_static, ptr @rb_str_new
  %22 = load ptr, ptr %7, align 8, !tbaa !52
  %23 = getelementptr inbounds nuw %struct.rb_addrinfo, ptr %22, i32 0, i32 0
  %24 = load ptr, ptr %23, align 8, !tbaa !77
  %25 = getelementptr inbounds nuw %struct.addrinfo, ptr %24, i32 0, i32 5
  %26 = load ptr, ptr %25, align 8, !tbaa !79
  %27 = load ptr, ptr %7, align 8, !tbaa !52
  %28 = getelementptr inbounds nuw %struct.rb_addrinfo, ptr %27, i32 0, i32 0
  %29 = load ptr, ptr %28, align 8, !tbaa !77
  %30 = getelementptr inbounds nuw %struct.addrinfo, ptr %29, i32 0, i32 4
  %31 = load i32, ptr %30, align 8, !tbaa !80
  %32 = zext i32 %31 to i64
  %33 = call i64 %21(ptr noundef %26, i64 noundef %32)
  store i64 %33, ptr %8, align 8, !tbaa !11
  %34 = load ptr, ptr %7, align 8, !tbaa !52
  call void @rb_freeaddrinfo(ptr noundef %34)
  %35 = load i64, ptr %8, align 8, !tbaa !11
  call void @llvm.lifetime.end.p0(i64 8, ptr %8) #24
  call void @llvm.lifetime.end.p0(i64 8, ptr %7) #24
  ret i64 %35
}