; Function Attrs: nounwind sspstrong uwtable
define internal i64 @sock_s_pack_sockaddr_in(i64 %0, i64 noundef %1, i64 noundef %2) #0 {
  %4 = tail call ptr @rsock_addrinfo(i64 noundef %2, i64 noundef %1, i32 noundef 0, i32 noundef 0, i32 noundef 0) #16
  %5 = load ptr, ptr %4, align 8, !tbaa !93
  %6 = getelementptr inbounds nuw i8, ptr %5, i64 24
  %7 = load ptr, ptr %6, align 8, !tbaa !82
  %8 = getelementptr inbounds nuw i8, ptr %5, i64 16
  %9 = load i32, ptr %8, align 8, !tbaa !83
  %10 = zext i32 %9 to i64
  %11 = tail call i64 @rb_str_new(ptr noundef %7, i64 noundef %10) #16
  tail call void @rb_freeaddrinfo(ptr noundef nonnull %4) #16
  ret i64 %11
}